; Function Attrs: nounwind uwtable
define internal fastcc void @gvrender_resolve_color(ptr noundef readonly captures(none) %0, ptr noundef %1, ptr noundef initializes((0, 8), (32, 36)) %2) unnamed_addr #0 {
  %4 = alloca %struct.agxbuf, align 8
  store ptr %1, ptr %2, align 8, !tbaa !106
  %5 = getelementptr inbounds nuw i8, ptr %2, i64 32
  store i32 4, ptr %5, align 8, !tbaa !114
  %6 = getelementptr inbounds nuw i8, ptr %0, i64 16
  %7 = load ptr, ptr %6, align 8, !tbaa !115
  %.not = icmp eq ptr %7, null
  br i1 %.not, label %bsearch.exit.thread, label %8

8:                                                ; preds = %3
  %9 = getelementptr inbounds nuw i8, ptr %0, i64 24
  %10 = load i32, ptr %9, align 8, !tbaa !116
  %.not24.i = icmp eq i32 %10, 0
  br i1 %.not24.i, label %bsearch.exit.thread, label %.lr.ph.i.preheader

.lr.ph.i.preheader:                               ; preds = %8
  %11 = sext i32 %10 to i64
  br label %.lr.ph.i

.lr.ph.i:                                         ; preds = %.lr.ph.i.preheader, %22
  %.01621.i = phi i64 [ %.1.i, %22 ], [ 0, %.lr.ph.i.preheader ]
  %.01720.i = phi i64 [ %.118.i, %22 ], [ %11, %.lr.ph.i.preheader ]
  %12 = add i64 %.01720.i, %.01621.i
  %13 = lshr i64 %12, 1
  %14 = shl i64 %13, 3
  %15 = getelementptr inbounds nuw i8, ptr %7, i64 %14
  %16 = load ptr, ptr %15, align 8, !tbaa !87
  %17 = tail call i32 @strcasecmp(ptr noundef nonnull readonly %1, ptr noundef %16) #23
  %18 = icmp slt i32 %17, 0
  br i1 %18, label %22, label %19

19:                                               ; preds = %.lr.ph.i
  %.not.i = icmp eq i32 %17, 0
  br i1 %.not.i, label %bsearch.exit, label %20

20:                                               ; preds = %19
  %21 = add nuw i64 %13, 1
  br label %22

22:                                               ; preds = %20, %.lr.ph.i
  %.118.i = phi i64 [ %.01720.i, %20 ], [ %13, %.lr.ph.i ]
  %.1.i = phi i64 [ %21, %20 ], [ %.01621.i, %.lr.ph.i ]
  %23 = icmp ult i64 %.1.i, %.118.i
  br i1 %23, label %.lr.ph.i, label %bsearch.exit.thread, !llvm.loop !117

bsearch.exit.thread:                              ; preds = %22, %8, %3
  %24 = getelementptr inbounds nuw i8, ptr %0, i64 28
  %25 = load i32, ptr %24, align 4, !tbaa !118
  %26 = tail call i32 @colorxlate(ptr noundef %1, ptr noundef nonnull %2, i32 noundef %25) #22
  switch i32 %26, label %55 [
    i32 0, label %bsearch.exit
    i32 1, label %27
  ]

27:                                               ; preds = %bsearch.exit.thread
  call void @llvm.lifetime.start.p0(i64 32, ptr nonnull %4) #22
  call void @llvm.memset.p0.i64(ptr noundef nonnull align 8 dereferenceable(32) %4, i8 0, i64 32, i1 false)
  call void (ptr, ptr, ...) @agxbprint(ptr noundef %4, ptr nonnull poison, ptr noundef %1)
  %28 = getelementptr inbounds nuw i8, ptr %4, i64 31
  %.val.i = load i8, ptr %28, align 1, !tbaa !106
  switch i8 %.val.i, label %agxblen.exit.i.i [
    i8 -1, label %30
    i8 31, label %agxbclear.exit.thread.i
  ]

agxblen.exit.i.i:                                 ; preds = %27
  %29 = zext i8 %.val.i to i64
  br label %agxbsizeof.exit.i.i

30:                                               ; preds = %27
  %31 = getelementptr inbounds nuw i8, ptr %4, i64 8
  %32 = load i64, ptr %31, align 8, !tbaa !106
  %33 = getelementptr inbounds nuw i8, ptr %4, i64 16
  %34 = load i64, ptr %33, align 8, !tbaa !106
  br label %agxbsizeof.exit.i.i

agxbsizeof.exit.i.i:                              ; preds = %30, %agxblen.exit.i.i
  %.0.i20.i.i = phi i64 [ %32, %30 ], [ %29, %agxblen.exit.i.i ]
  %.0.i14.i.i = phi i64 [ %34, %30 ], [ 31, %agxblen.exit.i.i ]
  %.not.i5.i = icmp ult i64 %.0.i20.i.i, %.0.i14.i.i
  br i1 %.not.i5.i, label %36, label %35

35:                                               ; preds = %agxbsizeof.exit.i.i
  call fastcc void @agxbmore(ptr noundef nonnull %4, i64 noundef 1)
  %.val.i15.pre.i.i = load i8, ptr %28, align 1, !tbaa !106
  br label %36

36:                                               ; preds = %35, %agxbsizeof.exit.i.i
  %.val.i6.pr.i = phi i8 [ %.val.i15.pre.i.i, %35 ], [ %.val.i, %agxbsizeof.exit.i.i ]
  %.not.i16.i.i = icmp eq i8 %.val.i6.pr.i, -1
  br i1 %.not.i16.i.i, label %agxbputc.exit.i.thread, label %agxbputc.exit.i

agxbputc.exit.i.thread:                           ; preds = %36
  %37 = getelementptr inbounds nuw i8, ptr %4, i64 8
  %38 = load i64, ptr %37, align 8, !tbaa !106
  %39 = load ptr, ptr %4, align 8, !tbaa !106
  %40 = getelementptr inbounds nuw i8, ptr %39, i64 %38
  store i8 0, ptr %40, align 1, !tbaa !106
  br label %46

agxbputc.exit.i:                                  ; preds = %36
  %41 = zext i8 %.val.i6.pr.i to i64
  %42 = getelementptr inbounds nuw [31 x i8], ptr %4, i64 0, i64 %41
  store i8 0, ptr %42, align 1, !tbaa !106
  %43 = load i8, ptr %28, align 1, !tbaa !106
  %44 = add i8 %43, 1
  store i8 %44, ptr %28, align 1, !tbaa !106
  %45 = icmp eq i8 %44, -1
  br i1 %45, label %46, label %agxbclear.exit.thread.i

agxbclear.exit.thread.i:                          ; preds = %agxbputc.exit.i, %27
  store i8 0, ptr %28, align 1, !tbaa !106
  br label %agxbuse.exit

46:                                               ; preds = %agxbputc.exit.i.thread, %agxbputc.exit.i
  %47 = getelementptr inbounds nuw i8, ptr %4, i64 8
  store i64 0, ptr %47, align 8, !tbaa !106
  %48 = load ptr, ptr %4, align 8, !tbaa !106
  br label %agxbuse.exit

agxbuse.exit:                                     ; preds = %agxbclear.exit.thread.i, %46
  %49 = phi ptr [ %48, %46 ], [ %4, %agxbclear.exit.thread.i ]
  %50 = call zeroext i1 @emit_once(ptr noundef %49) #22
  br i1 %50, label %51, label %52

51:                                               ; preds = %agxbuse.exit
  call void (ptr, ...) @agwarningf(ptr noundef nonnull @.str.12, ptr noundef %1) #22
  br label %52

52:                                               ; preds = %51, %agxbuse.exit
  %.val15 = load i8, ptr %28, align 1, !tbaa !106
  %53 = icmp eq i8 %.val15, -1
  br i1 %53, label %54, label %agxbfree.exit

54:                                               ; preds = %52
  %.val = load ptr, ptr %4, align 8
  call void @free(ptr noundef %.val) #22
  br label %agxbfree.exit

agxbfree.exit:                                    ; preds = %52, %54
  call void @llvm.lifetime.end.p0(i64 32, ptr nonnull %4) #22
  br label %bsearch.exit

55:                                               ; preds = %bsearch.exit.thread
  tail call void (ptr, ...) @agerrorf(ptr noundef nonnull @.str.13) #22
  br label %bsearch.exit

bsearch.exit:                                     ; preds = %19, %bsearch.exit.thread, %55, %agxbfree.exit
  ret void
}